; Function Attrs: mustprogress uwtable
define noalias noundef nonnull ptr @lean_io_app_path(ptr noundef readnone captures(none) %0) local_unnamed_addr #0 {
  %2 = alloca [4096 x i8], align 16
  %3 = alloca [4096 x i8], align 16
  call void @llvm.lifetime.start.p0(i64 4096, ptr nonnull %2) #27
  call void @llvm.lifetime.start.p0(i64 4096, ptr nonnull %3) #27
  call void @llvm.memset.p0.i64(ptr noundef nonnull align 16 dereferenceable(4096) %3, i8 0, i64 4096, i1 false)
  %4 = tail call i32 @getpid() #27
  %5 = call i32 (ptr, i64, ptr, ...) @snprintf(ptr noundef nonnull dereferenceable(1) %2, i64 noundef 4096, ptr noundef nonnull @.str.21, i32 noundef %4) #27
  %6 = call i64 @readlink(ptr noundef nonnull %2, ptr noundef nonnull %3, i64 noundef 4096) #27
  %7 = icmp eq i64 %6, -1
  br i1 %7, label %8, label %14

8:                                                ; preds = %1
  %9 = tail call noundef ptr @lean_mk_string(ptr noundef nonnull @.str.22)
  %10 = tail call ptr @lean_mk_io_user_error(ptr noundef %9)
  tail call void @lean_inc_heartbeat()
  %11 = tail call noalias ptr @mi_malloc_small(i64 noundef 24) #27
  %12 = icmp eq ptr %11, null
  br i1 %12, label %13, label %_ZN4lean18io_result_mk_errorEPKc.exit

13:                                               ; preds = %8
  tail call void @lean_internal_panic_out_of_memory() #28
  unreachable

14:                                               ; preds = %1
  %15 = call noundef ptr @lean_mk_string(ptr noundef nonnull %3)
  call void @lean_inc_heartbeat()
  %16 = call noalias ptr @mi_malloc_small(i64 noundef 24) #27
  %17 = icmp eq ptr %16, null
  br i1 %17, label %18, label %_ZN4lean18io_result_mk_errorEPKc.exit

18:                                               ; preds = %14
  call void @lean_internal_panic_out_of_memory() #28
  unreachable

_ZN4lean18io_result_mk_errorEPKc.exit:            ; preds = %14, %8
  %.sink7 = phi ptr [ %11, %8 ], [ %16, %14 ]
  %.sink4 = phi i32 [ 16908312, %8 ], [ 131096, %14 ]
  %.sink = phi ptr [ %10, %8 ], [ %15, %14 ]
  %19 = getelementptr inbounds nuw i8, ptr %.sink7, i64 4
  store i32 1, ptr %.sink7, align 4, !tbaa !7
  store i32 %.sink4, ptr %19, align 4
  %20 = getelementptr inbounds nuw i8, ptr %.sink7, i64 8
  store ptr %.sink, ptr %20, align 8, !tbaa !3
  %21 = getelementptr inbounds nuw i8, ptr %.sink7, i64 16
  store ptr inttoptr (i64 1 to ptr), ptr %21, align 8, !tbaa !3
  call void @llvm.lifetime.end.p0(i64 4096, ptr nonnull %3) #27
  call void @llvm.lifetime.end.p0(i64 4096, ptr nonnull %2) #27
  ret ptr %.sink7
}